target datalayout = "e-m:e-p270:32:32-p271:32:32-p272:64:64-i64:64-i128:128-f80:128-n8:16:32:64-S128"
target triple = "x86_64-pc-linux-gnu"

%struct.PJconsts = type { ptr, ptr, ptr, ptr, ptr, ptr, ptr, ptr, ptr, ptr, ptr, ptr, i32, ptr, ptr, ptr, ptr, ptr, ptr, ptr, ptr, double, double, double, double, double, double, double, double, double, double, double, double, double, double, double, double, double, double, double, double, double, double, i32, i32, i32, i32, i32, i32, i32, i32, i32, i32, i32, ptr, ptr, ptr, ptr, ptr, ptr, double, double, double, double, double, double, double, double, double, double, double, i32, [7 x double], i32, ptr, ptr, double, double, i32, [4 x i8], %"class.std::shared_ptr", i8, double, i8, %"class.std::__cxx11::basic_string", %"class.std::__cxx11::basic_string", %"class.std::__cxx11::basic_string", i8, %"class.std::vector", i32, %"class.std::vector.3", i32, i8, i8, i8, ptr }
%"class.std::shared_ptr" = type { %"class.std::__shared_ptr" }
%"class.std::__shared_ptr" = type { ptr, %"class.std::__shared_count" }
%"class.std::__shared_count" = type { ptr }
%"class.std::__cxx11::basic_string" = type { %"struct.std::__cxx11::basic_string<char>::_Alloc_hider", i64, %union.anon }
%"struct.std::__cxx11::basic_string<char>::_Alloc_hider" = type { ptr }
%union.anon = type { i64, [8 x i8] }
%"class.std::vector" = type { %"struct.std::_Vector_base" }
%"struct.std::_Vector_base" = type { %"struct.std::_Vector_base<osgeo::proj::operation::GridDescription, std::allocator<osgeo::proj::operation::GridDescription>>::_Vector_impl" }
%"struct.std::_Vector_base<osgeo::proj::operation::GridDescription, std::allocator<osgeo::proj::operation::GridDescription>>::_Vector_impl" = type { %"struct.std::_Vector_base<osgeo::proj::operation::GridDescription, std::allocator<osgeo::proj::operation::GridDescription>>::_Vector_impl_data" }
%"struct.std::_Vector_base<osgeo::proj::operation::GridDescription, std::allocator<osgeo::proj::operation::GridDescription>>::_Vector_impl_data" = type { ptr, ptr, ptr }
%"class.std::vector.3" = type { %"struct.std::_Vector_base.4" }
%"struct.std::_Vector_base.4" = type { %"struct.std::_Vector_base<PJCoordOperation, std::allocator<PJCoordOperation>>::_Vector_impl" }
%"struct.std::_Vector_base<PJCoordOperation, std::allocator<PJCoordOperation>>::_Vector_impl" = type { %"struct.std::_Vector_base<PJCoordOperation, std::allocator<PJCoordOperation>>::_Vector_impl_data" }
%"struct.std::_Vector_base<PJCoordOperation, std::allocator<PJCoordOperation>>::_Vector_impl_data" = type { ptr, ptr, ptr }
%"struct.(anonymous namespace)::pj_aeqd_data" = type { double, double, ptr, double, double, double, double, double, i32, %struct.geod_geodesic }
%struct.geod_geodesic = type { double, double, double, double, double, double, double, double, double, [6 x double], [15 x double], [21 x double] }
%struct.PJ_LP = type { double, double }
%struct.PJ_XY = type { double, double }

; Function Attrs: mustprogress uwtable
define internal { double, double } @_ZL14aeqd_e_inverse5PJ_XYP8PJconsts(double %0, double %1, ptr noundef %2) #0 {
  %4 = alloca %struct.PJ_LP, align 8
  %5 = alloca %struct.PJ_XY, align 8
  %6 = alloca ptr, align 8
  %7 = alloca ptr, align 8
  %8 = alloca double, align 8
  %9 = alloca double, align 8
  %10 = alloca double, align 8
  %11 = alloca double, align 8
  %12 = alloca double, align 8
  %13 = alloca double, align 8
  %14 = alloca double, align 8
  %15 = alloca i32, align 4
  %16 = getelementptr inbounds nuw { double, double }, ptr %5, i32 0, i32 0
  store double %0, ptr %16, align 8
  %17 = getelementptr inbounds nuw { double, double }, ptr %5, i32 0, i32 1
  store double %1, ptr %17, align 8
  store ptr %2, ptr %6, align 8, !tbaa !3
  call void @llvm.memset.p0.i64(ptr align 8 %4, i8 0, i64 16, i1 false)
  call void @llvm.lifetime.start.p0(i64 8, ptr %7) #8
  %18 = load ptr, ptr %6, align 8, !tbaa !3
  %19 = getelementptr inbounds nuw %struct.PJconsts, ptr %18, i32 0, i32 11
  %20 = load ptr, ptr %19, align 8, !tbaa !43
  store ptr %20, ptr %7, align 8, !tbaa !41
  call void @llvm.lifetime.start.p0(i64 8, ptr %8) #8
  call void @llvm.lifetime.start.p0(i64 8, ptr %9) #8
  call void @llvm.lifetime.start.p0(i64 8, ptr %10) #8
  call void @llvm.lifetime.start.p0(i64 8, ptr %11) #8
  call void @llvm.lifetime.start.p0(i64 8, ptr %12) #8
  call void @llvm.lifetime.start.p0(i64 8, ptr %13) #8
  call void @llvm.lifetime.start.p0(i64 8, ptr %14) #8
  %21 = getelementptr inbounds nuw %struct.PJ_XY, ptr %5, i32 0, i32 0
  %22 = load double, ptr %21, align 8, !tbaa !70
  %23 = getelementptr inbounds nuw %struct.PJ_XY, ptr %5, i32 0, i32 1
  %24 = load double, ptr %23, align 8, !tbaa !72
  %25 = call double @hypot(double noundef %22, double noundef %24) #8, !tbaa !54
  store double %25, ptr %10, align 8, !tbaa !73
  %26 = fcmp olt double %25, 1.000000e-10
  br i1 %26, label %27, label %33

27:                                               ; preds = %3
  %28 = load ptr, ptr %6, align 8, !tbaa !3
  %29 = getelementptr inbounds nuw %struct.PJconsts, ptr %28, i32 0, i32 61
  %30 = load double, ptr %29, align 8, !tbaa !46
  %31 = getelementptr inbounds nuw %struct.PJ_LP, ptr %4, i32 0, i32 1
  store double %30, ptr %31, align 8, !tbaa !74
  %32 = getelementptr inbounds nuw %struct.PJ_LP, ptr %4, i32 0, i32 0
  store double 0.000000e+00, ptr %32, align 8, !tbaa !76
  store i32 1, ptr %15, align 4
  br label %108

33:                                               ; preds = %3
  %34 = load ptr, ptr %7, align 8, !tbaa !41
  %35 = getelementptr inbounds nuw %"struct.(anonymous namespace)::pj_aeqd_data", ptr %34, i32 0, i32 8
  %36 = load i32, ptr %35, align 8, !tbaa !47
  %37 = icmp eq i32 %36, 3
  br i1 %37, label %43, label %38

38:                                               ; preds = %33
  %39 = load ptr, ptr %7, align 8, !tbaa !41
  %40 = getelementptr inbounds nuw %"struct.(anonymous namespace)::pj_aeqd_data", ptr %39, i32 0, i32 8
  %41 = load i32, ptr %40, align 8, !tbaa !47
  %42 = icmp eq i32 %41, 2
  br i1 %42, label %43, label %66

43:                                               ; preds = %38, %33
  %44 = load ptr, ptr %6, align 8, !tbaa !3
  %45 = getelementptr inbounds nuw %struct.PJconsts, ptr %44, i32 0, i32 61
  %46 = load double, ptr %45, align 8, !tbaa !46
  %47 = fdiv double %46, 0x3F91DF46A2529D39
  store double %47, ptr %11, align 8, !tbaa !73
  store double 0.000000e+00, ptr %12, align 8, !tbaa !73
  %48 = getelementptr inbounds nuw %struct.PJ_XY, ptr %5, i32 0, i32 0
  %49 = load double, ptr %48, align 8, !tbaa !70
  %50 = getelementptr inbounds nuw %struct.PJ_XY, ptr %5, i32 0, i32 1
  %51 = load double, ptr %50, align 8, !tbaa !72
  %52 = call double @atan2(double noundef %49, double noundef %51) #8, !tbaa !54
  %53 = fdiv double %52, 0x3F91DF46A2529D39
  store double %53, ptr %8, align 8, !tbaa !73
  %54 = load ptr, ptr %7, align 8, !tbaa !41
  %55 = getelementptr inbounds nuw %"struct.(anonymous namespace)::pj_aeqd_data", ptr %54, i32 0, i32 9
  %56 = load double, ptr %11, align 8, !tbaa !73
  %57 = load double, ptr %12, align 8, !tbaa !73
  %58 = load double, ptr %8, align 8, !tbaa !73
  %59 = load double, ptr %10, align 8, !tbaa !73
  call void @geod_direct(ptr noundef %55, double noundef %56, double noundef %57, double noundef %58, double noundef %59, ptr noundef %13, ptr noundef %14, ptr noundef %9)
  %60 = load double, ptr %13, align 8, !tbaa !73
  %61 = fmul double %60, 0x3F91DF46A2529D39
  %62 = getelementptr inbounds nuw %struct.PJ_LP, ptr %4, i32 0, i32 1
  store double %61, ptr %62, align 8, !tbaa !74
  %63 = load double, ptr %14, align 8, !tbaa !73
  %64 = fmul double %63, 0x3F91DF46A2529D39
  %65 = getelementptr inbounds nuw %struct.PJ_LP, ptr %4, i32 0, i32 0
  store double %64, ptr %65, align 8, !tbaa !76
  br label %107

66:                                               ; preds = %38
  %67 = load ptr, ptr %7, align 8, !tbaa !41
  %68 = getelementptr inbounds nuw %"struct.(anonymous namespace)::pj_aeqd_data", ptr %67, i32 0, i32 8
  %69 = load i32, ptr %68, align 8, !tbaa !47
  %70 = icmp eq i32 %69, 0
  br i1 %70, label %71, label %77

71:                                               ; preds = %66
  %72 = load ptr, ptr %7, align 8, !tbaa !41
  %73 = getelementptr inbounds nuw %"struct.(anonymous namespace)::pj_aeqd_data", ptr %72, i32 0, i32 5
  %74 = load double, ptr %73, align 8, !tbaa !64
  %75 = load double, ptr %10, align 8, !tbaa !73
  %76 = fsub double %74, %75
  br label %83

77:                                               ; preds = %66
  %78 = load ptr, ptr %7, align 8, !tbaa !41
  %79 = getelementptr inbounds nuw %"struct.(anonymous namespace)::pj_aeqd_data", ptr %78, i32 0, i32 5
  %80 = load double, ptr %79, align 8, !tbaa !64
  %81 = load double, ptr %10, align 8, !tbaa !73
  %82 = fadd double %80, %81
  br label %83

83:                                               ; preds = %77, %71
  %84 = phi double [ %76, %71 ], [ %82, %77 ]
  %85 = load ptr, ptr %7, align 8, !tbaa !41
  %86 = getelementptr inbounds nuw %"struct.(anonymous namespace)::pj_aeqd_data", ptr %85, i32 0, i32 2
  %87 = load ptr, ptr %86, align 8, !tbaa !59
  %88 = call noundef double @_Z11pj_inv_mlfndPKd(double noundef %84, ptr noundef %87)
  %89 = getelementptr inbounds nuw %struct.PJ_LP, ptr %4, i32 0, i32 1
  store double %88, ptr %89, align 8, !tbaa !74
  %90 = getelementptr inbounds nuw %struct.PJ_XY, ptr %5, i32 0, i32 0
  %91 = load double, ptr %90, align 8, !tbaa !70
  %92 = load ptr, ptr %7, align 8, !tbaa !41
  %93 = getelementptr inbounds nuw %"struct.(anonymous namespace)::pj_aeqd_data", ptr %92, i32 0, i32 8
  %94 = load i32, ptr %93, align 8, !tbaa !47
  %95 = icmp eq i32 %94, 0
  br i1 %95, label %96, label %100

96:                                               ; preds = %83
  %97 = getelementptr inbounds nuw %struct.PJ_XY, ptr %5, i32 0, i32 1
  %98 = load double, ptr %97, align 8, !tbaa !72
  %99 = fneg double %98
  br label %103

100:                                              ; preds = %83
  %101 = getelementptr inbounds nuw %struct.PJ_XY, ptr %5, i32 0, i32 1
  %102 = load double, ptr %101, align 8, !tbaa !72
  br label %103

103:                                              ; preds = %100, %96
  %104 = phi double [ %99, %96 ], [ %102, %100 ]
  %105 = call double @atan2(double noundef %91, double noundef %104) #8, !tbaa !54
  %106 = getelementptr inbounds nuw %struct.PJ_LP, ptr %4, i32 0, i32 0
  store double %105, ptr %106, align 8, !tbaa !76
  br label %107

107:                                              ; preds = %103, %43
  store i32 1, ptr %15, align 4
  br label %108

108:                                              ; preds = %107, %27
  call void @llvm.lifetime.end.p0(i64 8, ptr %14) #8
  call void @llvm.lifetime.end.p0(i64 8, ptr %13) #8
  call void @llvm.lifetime.end.p0(i64 8, ptr %12) #8
  call void @llvm.lifetime.end.p0(i64 8, ptr %11) #8
  call void @llvm.lifetime.end.p0(i64 8, ptr %10) #8
  call void @llvm.lifetime.end.p0(i64 8, ptr %9) #8
  call void @llvm.lifetime.end.p0(i64 8, ptr %8) #8
  call void @llvm.lifetime.end.p0(i64 8, ptr %7) #8
  %109 = load { double, double }, ptr %4, align 8
  ret { double, double } %109
}