; Function Attrs: mustprogress uwtable
define internal { double, double } @_ZL14aeqd_e_inverse5PJ_XYP8PJconsts(double %0, double %1, ptr noundef readonly captures(none) %2) #0 {
  %4 = alloca double, align 8
  %5 = alloca double, align 8
  %6 = alloca double, align 8
  %7 = getelementptr inbounds nuw i8, ptr %2, i64 88
  %8 = load ptr, ptr %7, align 8, !tbaa !40
  call void @llvm.lifetime.start.p0(i64 8, ptr nonnull %4) #8
  call void @llvm.lifetime.start.p0(i64 8, ptr nonnull %5) #8
  call void @llvm.lifetime.start.p0(i64 8, ptr nonnull %6) #8
  %9 = tail call double @hypot(double noundef %0, double noundef %1) #8, !tbaa !50
  %10 = fcmp olt double %9, 1.000000e-10
  br i1 %10, label %11, label %14

11:                                               ; preds = %3
  %12 = getelementptr inbounds nuw i8, ptr %2, i64 448
  %13 = load double, ptr %12, align 8, !tbaa !43
  br label %46

14:                                               ; preds = %3
  %15 = getelementptr inbounds nuw i8, ptr %8, i64 64
  %16 = load i32, ptr %15, align 8, !tbaa !44
  switch i32 %16, label %32 [
    i32 3, label %17
    i32 2, label %17
    i32 0, label %28
  ]

17:                                               ; preds = %14, %14
  %18 = getelementptr inbounds nuw i8, ptr %2, i64 448
  %19 = load double, ptr %18, align 8, !tbaa !43
  %20 = fdiv double %19, 0x3F91DF46A2529D39
  %21 = tail call double @atan2(double noundef %0, double noundef %1) #8, !tbaa !50
  %22 = fdiv double %21, 0x3F91DF46A2529D39
  %23 = getelementptr inbounds nuw i8, ptr %8, i64 72
  call void @geod_direct(ptr noundef nonnull %23, double noundef %20, double noundef 0.000000e+00, double noundef %22, double noundef %9, ptr noundef nonnull %5, ptr noundef nonnull %6, ptr noundef nonnull %4)
  %24 = load double, ptr %5, align 8, !tbaa !68
  %25 = fmul double %24, 0x3F91DF46A2529D39
  %26 = load double, ptr %6, align 8, !tbaa !68
  %27 = fmul double %26, 0x3F91DF46A2529D39
  br label %46

28:                                               ; preds = %14
  %29 = getelementptr inbounds nuw i8, ptr %8, i64 40
  %30 = load double, ptr %29, align 8, !tbaa !60
  %31 = fsub double %30, %9
  br label %36

32:                                               ; preds = %14
  %33 = getelementptr inbounds nuw i8, ptr %8, i64 40
  %34 = load double, ptr %33, align 8, !tbaa !60
  %35 = fadd double %9, %34
  br label %36

36:                                               ; preds = %32, %28
  %37 = phi double [ %31, %28 ], [ %35, %32 ]
  %38 = getelementptr inbounds nuw i8, ptr %8, i64 16
  %39 = load ptr, ptr %38, align 8, !tbaa !56
  %40 = tail call noundef double @_Z11pj_inv_mlfndPKd(double noundef %37, ptr noundef %39)
  %41 = load i32, ptr %15, align 8, !tbaa !44
  %42 = icmp eq i32 %41, 0
  %43 = fneg double %1
  %44 = select i1 %42, double %43, double %1
  %45 = tail call double @atan2(double noundef %0, double noundef %44) #8, !tbaa !50
  br label %46

46:                                               ; preds = %17, %36, %11
  %.sroa.5.0 = phi double [ %13, %11 ], [ %25, %17 ], [ %40, %36 ]
  %.sroa.022.0 = phi double [ 0.000000e+00, %11 ], [ %27, %17 ], [ %45, %36 ]
  call void @llvm.lifetime.end.p0(i64 8, ptr nonnull %6) #8
  call void @llvm.lifetime.end.p0(i64 8, ptr nonnull %5) #8
  call void @llvm.lifetime.end.p0(i64 8, ptr nonnull %4) #8
  %.fca.0.insert = insertvalue { double, double } poison, double %.sroa.022.0, 0
  %.fca.1.insert = insertvalue { double, double } %.fca.0.insert, double %.sroa.5.0, 1
  ret { double, double } %.fca.1.insert
}